(dp1
VNP-PN
p2
(dp3
(VNP
VADJP
tp4
F-10.487377747159124
s(VCC
VNP
tp5
F-8.695618277931068
s(VNT
VNP-PN
tp6
F-8.5414675981038108
s(VNR
VNR
tp7
F-3.5175870772575344
s(VNN
VPRN
tp8
F-10.487377747159124
s(VNP
VNN
tp9
F-9.1010833860392335
s(VCC
VNP-PN
tp10
F-6.068537139362526
s(VADVP
VNP-PN
tp11
F-9.7942305665991789
s(VP
VNR
tp12
F-8.8779398347250229
s(VNP
VNP
tp13
F-4.8174968241786038
s(VNN
tp14
F-3.8861476284302476
s(VNP
VPU
tp15
F-6.2532712425618646
s(VPP
VNP
tp16
F-9.7942305665991789
s(VPRN
VNP
tp17
F-8.2901531698229043
s(VCC
VNN
tp18
F-8.2901531698229043
s(VNP
VPRN
tp19
F-7.0216418443593973
s(VNN
VNR
tp20
F-7.0861803654969684
s(VNP-PN
VPRN
tp21
F-7.1200819171726497
s(VIP
VNP
tp22
F-10.487377747159124
s(VIP
VNP-PN
tp23
F-8.8779398347250229
s(VPU
VNR
tp24
F-4.214500740612956
s(VNP
VETC
tp25
F-9.3887654584910134
s(VNR
VNP-PN
tp26
F-2.4674360594817593
s(VNN
VNN
tp27
F-3.0560780720032215
s(VCD
VNP-PN
tp28
F-10.487377747159124
s(VNN
VNP-PN
tp29
F-3.8166114263132496
s(VNP-PN
VPU
tp30
F-4.4590992269284255
s(VDP
VNP
tp31
F-10.487377747159124
s(VPRN
VNP-PN
tp32
F-6.9908701856926436
s(VFW
tp33
F-10.487377747159124
s(VNN
VETC
tp34
F-10.487377747159124
s(VNP
tp35
F-9.1010833860392335
s(VCC
VNR
tp36
F-4.5161159073686612
s(VNP-PN
VQP
tp37
F-10.487377747159124
s(VNR
tp38
F-0.56531380905006035
s(VQP
VNP
tp39
F-6.3284946637994519
s(VNP-PN
VNP-PN
tp40
F-3.6939116145791147
s(VPU
VNP-PN
tp41
F-3.2951956884458786
s(VDNP
VNP-PN
tp42
F-9.3887654584910134
s(VPN
tp43
F-9.7942305665991789
s(VNP-PN
VNP
tp44
F-5.3875113193349256
s(VNR
VNP
tp45
F-9.7942305665991789
s(VPP
VNP-PN
tp46
F-9.7942305665991789
s(VPRN
VNR
tp47
F-8.695618277931068
s(VNR
VPRN
tp48
F-6.7031881132408628
s(VNR
VETC
tp49
F-7.5970059892629589
s(VPN
VNP-PN
tp50
F-10.487377747159124
s(VETC
VNR
tp51
F-10.487377747159124
s(VPU
VPRN
tp52
F-9.7942305665991789
s(VADJP
VNP
tp53
F-4.2490531221196157
s(VNR
VNN
tp54
F-2.6937909437875405
s(VDNP
VNP
tp55
F-10.487377747159124
s(VCP
VNP-PN
tp56
F-8.695618277931068
s(VADJP
VNP-PN
tp57
F-6.2826851277681577
s(VNN
VPU
tp58
F-10.487377747159124
s(VDP
VNP-PN
tp59
F-9.3887654584910134
s(VNR
VCC
tp60
F-10.487377747159124
s(VCP
VNP
tp61
F-9.1010833860392335
s(VPU
VNN
tp62
F-7.7793275460569138
s(VPU
VNP
tp63
F-9.1010833860392335
s(VLCP
VNP-PN
tp64
F-10.487377747159124
s(VNP-PN
VETC
tp65
F-4.9579486596477009
s(VVP
tp66
F-10.487377747159124
s(VNR
VPU
tp67
F-8.8779398347250229
s(VQP
VNP-PN
tp68
F-6.9908701856926436
s(VNP
VNP-PN
tp69
F-4.6822427782426352
s(VQP-PN
VNP-PN
tp70
F-10.487377747159124
s(VNT
VNN
tp71
F-9.3887654584910134
s(VPRN
VNN
tp72
F-9.7942305665991789
s(VNP
VQP
tp73
F-10.487377747159124
ssVADJP
p74
(dp75
(VJJ
VADJP
tp76
F-5.4075333435796162
s(VNN
VADJP
tp77
F-9.5346677286247079
s(VCC
VJJ
tp78
F-6.7014543845684917
s(VDP
VADJP
tp79
F-8.8415205480647625
s(VQP
VADJP
tp80
F-5.6226447231965615
s(VNP-PN
VADJP
tp81
F-7.232082635630662
s(VNP
VADJP
tp82
F-5.1779589019351162
s(VAD
VADJP
tp83
F-9.5346677286247079
s(VJJ
tp84
F-0.055751653936480905
s(VADVP
VADJP
tp85
F-3.8579139263564262
s(VCC
VADJP
tp86
F-9.5346677286247079
s(VJJ
VPU
tp87
F-9.5346677286247079
s(VADJP
VNP
tp88
F-9.5346677286247079
s(VADJP
VPU
tp89
F-5.6845201269146495
s(VLCP
VADJP
tp90
F-9.5346677286247079
s(VJJ
VJJ
tp91
F-5.3602804587290711
s(VADJP
VADJP
tp92
F-6.4901452909012844
s(VAD
tp93
F-9.5346677286247079
s(VJJ
VPRN
tp94
F-8.4360554399565988
s(VPU
VJJ
tp95
F-6.0689318258249818
s(VUCP
VADJP
tp96
F-9.5346677286247079
s(VPU
VADJP
tp97
F-5.3915330022331753
ssVMSP
p98
(dp99
(VVV
VVP
tp100
F0
ssVIP-PN
p101
(dp102
(VNP
VIP-PN
tp103
F-1.2527629684953681
s(VNP-PN
VVP
tp104
F-1.9459101490553135
s(VPU
VIP-PN
tp105
F-1.2527629684953681
s(VVP
VPU
tp106
F-1.2527629684953681
ssVDVP
p107
(dp108
(VUCP
VDEV
tp109
F-5.4638318050256105
s(VPP
VDEV
tp110
F-6.5624440936937196
s(VIP
VDEV
tp111
F-3.6180051145272794
s(VVV
tp112
F-6.5624440936937196
s(VLCP
VDEG
tp113
F-6.5624440936937196
s(VQP
VDEV
tp114
F-3.9233867640784612
s(VVCD
VDEV
tp115
F-5.8692969131337742
s(VNP
VDEV
tp116
F-3.3843902633457743
s(VVP
VDEC
tp117
F-4.9530061812596191
s(VVP
tp118
F-2.6912430827858289
s(VCLP
VDEV
tp119
F-5.8692969131337742
s(VADVP
VDEV
tp120
F-2.1929962412266981
s(VVP
VDEV
tp121
F-0.35385406759709098
s(VADJP
VDEV
tp122
F-6.5624440936937196
s(VNP
tp123
F-5.4638318050256105
s(VDEV
tp124
F-6.5624440936937196
s(VADVP
VVP
tp125
F-5.4638318050256105
s(VAD
tp126
F-5.1761497325738288
ssVDP
p127
(dp128
(VDT
VQP
tp129
F-2.0757007875413676
s(VADVP
VDP
tp130
F-6.6426497607092614
s(VPN
tp131
F-7.3357969412692059
s(VDNP
VDP
tp132
F-6.4195062093950517
s(VNP-PN
VDP
tp133
F-8.0289441218291522
s(VDP
VNP
tp134
F-8.7220913023890976
s(VDT
tp135
F-0.69428845401878525
s(VDT
VDT
tp136
F-8.7220913023890976
s(VLCP
VDP
tp137
F-8.7220913023890976
s(VIP
VDP
tp138
F-8.0289441218291522
s(VCP
VDP
tp139
F-6.4195062093950517
s(VOD
tp140
F-8.7220913023890976
s(VNP
VDEG
tp141
F-8.7220913023890976
s(VNP
VDP
tp142
F-5.1111733897448728
s(VDT
VCLP
tp143
F-1.0208911215316507
s(VDP
VPRN
tp144
F-8.7220913023890976
s(VQP
VDP
tp145
F-7.3357969412692059
s(VDT
VNP
tp146
F-8.7220913023890976
s(VDP
VQP
tp147
F-8.0289441218291522
s(VDP
VCLP
tp148
F-8.0289441218291522
s(VADJP
VDP
tp149
F-8.7220913023890976
s(VDP
VDP
tp150
F-8.7220913023890976
s(VDT
VM
tp151
F-8.7220913023890976
ssVQP-PN
p152
(dp153
(VNP-PN
VQP
tp154
F-1.6739764335716716
s(VNR
tp155
F-2.7725887222397811
s(VPU
VQP-PN
tp156
F-1.3862943611198906
s(VQP
VPU
tp157
F-1.8562979903656263
s(VNP
VQP
tp158
F-1.6739764335716716
s(VNP
VQP-PN
tp159
F-1.8562979903656263
ssVVPT
p160
(dp161
(VAD
VSP
tp162
F-6.3801225368997656
s(VPU
VVPT
tp163
F-5.6869753563398202
s(VVNV
VVPT
tp164
F-5.6869753563398202
s(VDER
VVA
tp165
F-5.6869753563398202
s(VVRD
VVPT
tp166
F-6.3801225368997656
s(VAD
VVV
tp167
F-1.0048441292156001
s(VAD
VVA
tp168
F-3.2446283209706155
s(VVV
VVPT
tp169
F-0.72763335663111461
s(VDER
VVV
tp170
F-2.4288788183183376
s(VVA
VVPT
tp171
F-4.5883630676717102
ssVPP
p172
(dp173
(VP
VLCP
tp174
F-1.6713868766649378
s(VPP
VIP
tp175
F-7.2612250919719212
s(VPP
VPRN
tp176
F-7.3412677996454576
s(VPP
VQP
tp177
F-9.8261744494334575
s(VNP
VPP
tp178
F-9.1330272688735121
s(VADVP
VNP
tp179
F-9.8261744494334575
s(VPP
VNP
tp180
F-6.935802691537293
s(VPP
VPU
tp181
F-5.4694656227438658
s(VPP
VVP
tp182
F-9.1330272688735121
s(VNP-PN
tp183
F-8.034414980205403
s(VP
VADJP
tp184
F-9.1330272688735121
s(VNP
VPU
tp185
F-9.8261744494334575
s(VP
VUCP
tp186
F-5.9549734385255668
s(VADVP
tp187
F-9.8261744494334575
s(VNT
VNT
tp188
F-9.8261744494334575
s(VP
VDP
tp189
F-5.5495083304174022
s(VP
VQP
tp190
F-4.2277524904350834
s(VP
tp191
F-7.8802643003781441
s(VNP
tp192
F-6.1885882897070719
s(VADVP
VADVP
tp193
F-8.2167365369993579
s(VP
VNT
tp194
F-8.7275621607653484
s(VPP
VLCP
tp195
F-8.7275621607653484
s(VP
VNN
tp196
F-7.6289498720972384
s(VPP
p197
VADJP
p198
tp199
F-9.8261744494334575
s(VPP
VDNP
tp200
F-9.8261744494334575
s(VPP
VDP
tp201
F-9.8261744494334575
s(VIP
tp202
F-8.4398800883135667
s(VP
VPP
tp203
F-8.2167365369993579
s(VPP
VNP-PN
tp204
F-9.8261744494334575
s(VP
VNP
tp205
F-0.62568241351208953
s(VPU
VP
tp206
F-8.2167365369993579
s(VPP
VLC
tp207
F-8.7275621607653484
s(VP
VCP
tp208
F-7.5235893564394116
s(VPU
VPP
tp209
F-9.8261744494334575
s(VCC
VPP
tp210
F-8.4398800883135667
s(VP
VAS
tp211
F-9.8261744494334575
s(VPP
VADVP
tp212
F-8.2167365369993579
s(VP
VCLP
tp213
F-7.7467329077536222
s(VCP
VNP
tp214
F-9.8261744494334575
s(VPP
VCC
tp215
F-7.3412677996454576
s(VP
VNP-PN
tp216
F-2.2202844483803363
s(VP
VPU
tp217
F-7.7467329077536222
s(VP
VDNP
tp218
F-8.2167365369993579
s(VAD
tp219
F-9.8261744494334575
s(VADVP
VPP
tp220
F-4.2693463877339202
s(VPP
VPP
tp221
F-4.4790669187159891
s(VP
VIP
tp222
F-2.2383572294400311
s(VPU
VADVP
tp223
F-9.1330272688735121
s(VP
VP
tp224
F-8.7275621607653484
s(VPP
VETC
tp225
F-9.1330272688735121
ssVNN
p226
(dp227
(VDNP
VNN
tp228
F-1.791759469228055
s(VADJP
VNP
tp229
F-1.791759469228055
s(VDNP
VNP
tp230
F-0.40546510810816444
ssVUCP
p231
(dp232
(VNP
VIP
tp233
F-5.6861275394174804
s(VCC
VNP
tp234
F-2.9292871741458382
s(VPU
VUCP
tp235
F-1.4666198342413737
s(VPU
VNP
tp236
F-3.4348357408109851
s(VCC
VNP-PN
tp237
F-6.3792747199774258
s(VIP
VUCP
tp238
F-2.0225658932878341
s(VCC
VIP
tp239
F-3.1806016024267443
s(VCP
VUCP
tp240
F-5.6861275394174804
s(VLCP
VNP
tp241
F-7.0724219005373712
s(VPU
VETC
tp242
F-5.9738096118692612
s(VIP
VNP
tp243
F-7.0724219005373712
s(VIP
VPU
tp244
F-4.6745266277390005
s(VPP
VUCP
tp245
F-5.4629839881032707
s(VDNP
VUCP
tp246
F-5.6861275394174804
s(VLCP
VUCP
tp247
F-5.4629839881032707
s(VCC
VPP
tp248
F-7.0724219005373712
s(VNP
VUCP
tp249
F-1.3990986333658784
s(VIP-PN
VETC
tp250
F-7.0724219005373712
s(VNP
VETC
tp251
F-3.7402173903621669
s(VPU
VLCP
tp252
F-5.2806624313093158
s(VNP-PN
VUCP
tp253
F-5.1265117514820577
s(VQP
VADJP
tp254
F-7.0724219005373712
s(VCC
VUCP
tp255
F-3.8143253625158891
s(VNP
VQP
tp256
F-6.3792747199774258
s(VCC
VVP
tp257
F-7.0724219005373712
s(VPU
VIP
tp258
F-3.2657594107670511
s(VNP
VADJP
tp259
F-7.0724219005373712
s(VVP
VETC
tp260
F-7.0724219005373712
s(VQP-PN
VUCP
tp261
F-6.3792747199774258
s(VPU
VQP
tp262
F-5.6861275394174804
s(VCC
VQP
tp263
F-5.6861275394174804
s(VPU
VPU
tp264
F-7.0724219005373712
s(VIP
tp265
F-7.0724219005373712
s(VUCP
VUCP
tp266
F-5.6861275394174804
s(VCC
VADJP
tp267
F-4.992980358857535
s(VLCP
tp268
F-7.0724219005373712
s(VCC
VLCP
tp269
F-4.239208556481155
s(VADJP
VNP
tp270
F-5.9738096118692612
s(VCP
VIP
tp271
F-7.0724219005373712
s(VDP
VUCP
tp272
F-7.0724219005373712
s(VPU
VPP
tp273
F-6.3792747199774258
s(VADJP
VUCP
tp274
F-3.8143253625158891
s(VIP
VDEG
tp275
F-7.0724219005373712
s(VADVP
VUCP
tp276
F-4.7698368075433253
s(VNP
VPU
tp277
F-6.3792747199774258
s(VUCP
VNP
tp278
F-7.0724219005373712
s(VADJP
VADJP
tp279
F-7.0724219005373712
s(VNP-PN
VETC
tp280
F-7.0724219005373712
s(VPU
VVP
tp281
F-7.0724219005373712
s(VIP
VETC
tp282
F-3.5759143390708905
s(VUCP
VPU
tp283
F-7.0724219005373712
s(VQP
VUCP
tp284
F-4.239208556481155
s(VCC
VCP
tp285
F-7.0724219005373712
s(VDP
VADJP
tp286
F-7.0724219005373712
s(VPU
VADJP
tp287
F-5.4629839881032707
ssVPRN
p288
(dp289
(VCC
VNP
tp290
F-7.6231530684769018
s(VQP
tp291
F-6.9300058879169573
s(VNN
VPRN
tp292
F-7.6231530684769018
s(VPP
tp293
F-6.9300058879169573
s(VQP
VNP
tp294
F-7.6231530684769018
s(VADVP
VNP-PN
tp295
F-5.6772429194215892
s(VCC
VVP
tp296
F-7.6231530684769018
s(VIP
VPRN
tp297
F-5.6772429194215892
s(VNN
tp298
F-6.5245407798087927
s(VADVP
VNP
tp299
F-5.6772429194215892
s(VNP
VPRN
tp300
F-4.9151028673746922
s(VQP
VPRN
tp301
F-5.5437115267970665
s(VNP-PN
VVP
tp302
F-7.6231530684769018
s(VIP
VPU
tp303
F-3.2164338212126489
s(VPP
VPU
tp304
F-7.6231530684769018
s(VNP-PN
tp305
F-4.5321106151185866
s(VLCP
VPU
tp306
F-6.9300058879169573
s(VNP
VPU
tp307
F-1.4704203737727979
s(VCC
VPRN
tp308
F-6.9300058879169573
s(VPU
VQP
tp309
F-5.0582037110153655
s(VNP-PN
VPU
tp310
F-2.7948393311746011
s(VVP
tp311
F-4.5786306307534792
s(VFW
tp312
F-6.9300058879169573
s(VNP
tp313
F-4.9151028673746922
s(VVP
VPU
tp314
F-3.8619529527833398
s(VPU
VIP
tp315
F-3.3056649549405916
s(VNR
tp316
F-7.6231530684769018
s(VDNP
tp317
F-7.6231530684769018
s(VNP
VVP
tp318
F-6.9300058879169573
s(VPU
VNP-PN
tp319
F-3.5122792043035909
s(VNN
VNN
tp320
F-7.6231530684769018
s(VNP-PN
VNP
tp321
F-6.9300058879169573
s(VPU
VUCP
tp322
F-6.2368587073570119
s(VIP
tp323
F-3.9855669087505166
s(VNP-PN
VPRN
tp324
F-6.5245407798087927
s(VADJP
VPRN
tp325
F-6.0137151560428022
s(VPU
tp326
F-7.6231530684769018
s(VPU
VPRN
tp327
F-0.91996495523603938
s(VPU
VPP
tp328
F-6.2368587073570119
s(VADJP
VPU
tp329
F-6.5245407798087927
s(VPRN
VPU
tp330
F-5.6772429194215892
s(VADVP
VUCP
tp331
F-6.9300058879169573
s(VCP
VNP
tp332
F-7.6231530684769018
s(VPU
VNP
tp333
F-2.9691927183193787
s(VNP
VNP
tp334
F-6.9300058879169573
s(VPU
VVP
tp335
F-6.9300058879169573
s(VQP
VPU
tp336
F-3.7945116719878071
s(VCLP
VPU
tp337
F-5.4259284911406827
s(VLCP
VNP
tp338
F-7.6231530684769018
ssVVNV
p339
(dp340
(VCD
VVV
tp341
F-3.2834143460057721
s(VVE
VVE
tp342
F-2.9957322735539909
s(VVV
VVV
tp343
F-5.4806389233419912
s(VVE
VVNV
tp344
F-4.3820266346738812
s(VVV
VVNV
tp345
F-1.0147308046874075
s(VVA
VVNV
tp346
F-3.4011973816621555
s(VVV
VVE
tp347
F-5.4806389233419912
s(VVV
VAD
tp348
F-5.4806389233419912
s(VAD
VVV
tp349
F-1.1239300966523995
s(VAD
VVA
tp350
F-3.4011973816621555
s(VAD
VVC
tp351
F-2.7725887222397811
s(VVC
VVNV
tp352
F-2.7725887222397811
s(VAD
VVE
tp353
F-4.7874917427820458
ssVLST
p354
(dp355
(VCD
tp356
F-0.42660754468197354
s(VCD
VCLP
tp357
F-4.7833163713715656
s(VPU
VCD
tp358
F-4.7833163713715656
s(VNP
VPU
tp359
F-4.0901691908116202
s(VFW
VLST
tp360
F-4.7833163713715656
s(VLST
VPU
tp361
F-3.2792389745952915
s(VPU
tp362
F-2.4807312783775197
s(VOD
tp363
F-3.1738784589374651
s(VPU
VLST
tp364
F-2.6432502078752944
s(VQP
VPU
tp365
F-4.0901691908116202
s(VFW
tp366
F-2.9115141944699738
ssVVRD
p367
(dp368
(VVV
VVC
tp369
F-5.6261812286326496
s(VVV
VVA
tp370
F-3.4979495227833817
s(VVSB
VVV
tp371
F-7.2356191410667501
s(VVV
VVRD
tp372
F-4.6706697836052129
s(VVV
tp373
F-5.8493247799468593
s(VVA
tp374
F-7.2356191410667501
s(VVV
VVV
tp375
F-0.093582566359947092
s(VVRD
VVV
tp376
F-7.2356191410667501
s(VVRD
VVRD
tp377
F-7.2356191410667501
s(VVV
VVE
tp378
F-5.8493247799468593
s(VVA
VVA
tp379
F-7.2356191410667501
s(VAS
VVV
tp380
F-6.5424719605068047
s(VVCD
VVV
tp381
F-5.0383945637305301
s(VVA
VVV
tp382
F-4.4630304188269685
s(VPU
VVV
tp383
F-4.8377238682683794
s(VVCD
VVP
tp384
F-7.2356191410667501
s(VVRD
VPU
tp385
F-7.2356191410667501
s(VPU
VVRD
tp386
F-4.8377238682683794
ssVNP
p387
(dp388
(VCC
VNP
tp389
F-4.448576471679865
s(VCD
VNP
tp390
F-12.284551053401431
s(VQP
tp391
F-9.7196016959398932
s(VNR
VNR
tp392
F-10.67511314096733
s(VNP
VNN
tp393
F-9.4513377093452142
s(VNP
VCP
tp394
F-11.591403872841486
s(VQP
VCP
tp395
F-10.67511314096733
s(VADVP
VNP-PN
tp396
F-8.5233509377078676
s(VCP
VPU
tp397
F-10.89825669228154
s(VNP
VPP
tp398
F-9.7996444036134296
s(VPRN
VNP
tp399
F-8.0650433482253234
s(VPP
VNP
tp400
F-6.1191331991700109
s(VNP
g288
tp401
F-6.506898730178774
s(VPN
VNP
tp402
F-10.338640904346118
s(VADJP
VCP
tp403
F-11.18593876473332
s(VCP
VDEC
tp404
F-11.591403872841486
s(VDP
tp405
F-11.591403872841486
s(VNP-PN
VPU
tp406
F-8.3142591398493089
s(VNP
VSP
tp407
F-11.18593876473332
s(g152
VNP
tp408
F-9.7196016959398932
s(VADVP
VVP
tp409
F-12.284551053401431
s(VCP
VDP
tp410
F-10.89825669228154
s(VPP
tp411
F-11.591403872841486
s(VNN
VETC
tp412
F-9.1064972230534842
s(VNP
VDEG
tp413
F-11.18593876473332
s(VVC
VNP
tp414
F-11.591403872841486
s(VCP
VNP-PN
tp415
F-5.6459832642349097
s(VQP
p416
VNP
tp417
F-3.1928816111429263
s(VP
VNN
tp418
F-12.284551053401431
s(VPN
tp419
F-3.4910906923487106
s(g2
VNP
tp420
F-3.0536240478168595
s(VPU
VPU
tp421
F-9.0656752285332303
s(VIP
tp422
F-9.2888187798474391
s(VP
VNP
tp423
F-10.492791584173375
s(VNN
VPP
tp424
F-10.67511314096733
s(VNN
VNP
tp425
F-3.3040012754612511
s(VQP
VCLP
tp426
F-11.591403872841486
s(VUCP
tp427
F-12.284551053401431
s(g74
VNP
tp428
F-2.9316699946431375
s(VCS
tp429
F-12.284551053401431
s(VNP
VDNP
tp430
F-12.284551053401431
s(VDNP
p431
VNP
tp432
F-2.9192603214274251
s(VCD
tp433
F-11.18593876473332
s(VPRN
VPU
tp434
F-10.89825669228154
s(VDP
VQP
tp435
F-11.591403872841486
s(VPN
VETC
tp436
F-11.591403872841486
s(VDNP
VUCP
tp437
F-12.284551053401431
s(VCP
tp438
F-5.2842165931262004
s(VCP
p439
VNP
tp440
F-2.921060501931573
s(VMSP
VVP
tp441
F-9.7996444036134296
s(VPP
VPP
tp442
F-11.591403872841486
s(VAD
VNP
tp443
F-11.591403872841486
s(VCC
VNT
tp444
F-7.3078173109808562
s(VNP
VNP-PN
tp445
F-4.5970122871998012
s(VADJP
VNN
tp446
F-9.9819659604073845
s(VQP
VQP
tp447
F-10.89825669228154
s(VPRN
VNN
tp448
F-10.67511314096733
s(VNP
VIP
tp449
F-10.89825669228154
s(VVP
VVP
tp450
F-12.284551053401431
s(VNN
VPRN
tp451
F-8.6469648936750456
s(VPRN
VNT
tp452
F-11.591403872841486
s(VDNP
VDP
tp453
F-12.284551053401431
s(VDNP
VIP
tp454
F-11.18593876473332
s(VQP
VNN
tp455
F-10.67511314096733
s(VNN
tp456
F-1.0987417301283899
s(VPU
VETC
tp457
F-11.18593876473332
s(VCC
VNN
tp458
F-4.8069468102038417
s(VIP
VNP
tp459
F-5.5393147039170687
s(VNP
VDP
tp460
F-12.284551053401431
s(VNP
VIJ
tp461
F-12.284551053401431
s(VCP
VQP
tp462
F-9.8866557806030606
s(VNT
VPRN
tp463
F-8.5003614194831698
s(VDEC
VNP
tp464
F-12.284551053401431
s(VPP
VNN
tp465
F-11.591403872841486
s(g127
VNP
tp466
F-3.7300620772414961
s(VPRN
VNP-PN
tp467
F-8.8505638489162841
s(VNP-PN
VDEG
tp468
F-12.284551053401431
s(VJJ
VNN
tp469
F-10.89825669228154
s(VADVP
VCP
tp470
F-12.284551053401431
s(VIJ
tp471
F-12.284551053401431
s(VOD
VNN
tp472
F-12.284551053401431
s(VPU
VIP
tp473
F-11.18593876473332
s(VNP-PN
VQP
tp474
F-8.6469648936750456
s(VPU
VNP-PN
tp475
F-7.9670629398651203
s(VADVP
VADJP
tp476
F-12.284551053401431
s(VNP
VVP
tp477
F-10.67511314096733
s(VDT
VCLP
tp478
F-11.591403872841486
s(VADJP
VNT
tp479
F-12.284551053401431
s(VDVP
VNP-PN
tp480
F-12.284551053401431
s(VNT
VNR
tp481
F-10.89825669228154
s(VNR
VNN
tp482
F-8.173677189228119
s(VNP
VPU
tp483
F-4.4876707106179081
s(VPP
VDEG
tp484
F-11.591403872841486
s(VDP
VIP
tp485
F-11.591403872841486
s(VUCP
VNP
tp486
F-7.6694305365601707
s(VDNP
VDEG
tp487
F-12.284551053401431
s(VUCP
VDEG
tp488
F-12.284551053401431
s(VCC
VPN
tp489
F-10.89825669228154
s(VNP-PN
VCP
tp490
F-11.18593876473332
s(VNT
VNT
tp491
F-5.5103271670438163
s(VLCP
VNN
tp492
F-11.591403872841486
s(VLST
VNP
tp493
F-10.492791584173375
s(VFW
VNP
tp494
F-11.591403872841486
s(VADJP
tp495
F-11.18593876473332
s(VNP-PN
VNN
tp496
F-9.9819659604073845
s(VNP
VNP
tp497
F-2.588026171575708
s(VLCP
VNP
tp498
F-6.2277670401728065
s(VADVP
VNP
tp499
F-6.2635277040519037
s(VM
tp500
F-11.591403872841486
s(VDT
VNP
tp501
F-11.591403872841486
s(VNP-PN
VPP
tp502
F-12.284551053401431
s(VVV
tp503
F-10.89825669228154
s(VDT
tp504
F-11.591403872841486
s(VNN
VAS
tp505
F-12.284551053401431
s(VNP-PN
VDNP
tp506
F-12.284551053401431
s(VPU
VNR
tp507
F-9.8866557806030606
s(VNP
VETC
tp508
F-5.7039119161164811
s(VPN
VPN
tp509
F-8.7880434919349497
s(VPU
VFW
tp510
F-12.284551053401431
s(VCP
VNN
tp511
F-10.67511314096733
s(VNN
VNR
tp512
F-10.89825669228154
s(VFW
tp513
F-12.284551053401431
s(VDEG
VNP
tp514
F-11.591403872841486
s(VCC
VNR
tp515
F-10.89825669228154
s(VVP
VPU
tp516
F-12.284551053401431
s(VDP
VNN
tp517
F-11.18593876473332
s(VNR
VNP
tp518
F-8.4559096569123362
s(VNP-PN
VNP-PN
tp519
F-7.3217064231415234
s(VNN
VFW
tp520
F-12.284551053401431
s(VLCP
VLCP
tp521
F-12.284551053401431
s(VNN
VPN
tp522
F-9.9819659604073845
s(VNP
VQP
tp523
F-9.7996444036134296
s(VNP-PN
VPRN
tp524
F-8.4559096569123362
s(VNR
VETC
tp525
F-12.284551053401431
s(VPU
tp526
F-11.18593876473332
s(VPU
VPRN
tp527
F-8.3527254206771051
s(VPU
VPP
tp528
F-12.284551053401431
s(VDP
VCP
tp529
F-10.67511314096733
s(VNN
VPU
tp530
F-9.1064972230534842
s(VPU
VNN
tp531
F-5.3204154409831856
s(VNP-PN
VETC
tp532
F-8.0798584340104647
s(VAD
tp533
F-11.18593876473332
s(VQP
VPU
tp534
F-11.18593876473332
s(VPU
VNT
tp535
F-8.8833536717392754
s(VNP
VNR-PN
tp536
F-11.591403872841486
s(VNT
VNN
tp537
F-6.4012286649131518
s(VCLP
VNP
tp538
F-8.5956715992874937
s(VIP
VNN
tp539
F-12.284551053401431
s(VINTJ
p540
VNP
tp541
F-11.591403872841486
s(VPRN
VPRN
tp542
F-12.284551053401431
s(VNR
tp543
F-7.5054275602899008
s(VNP
VLC
tp544
F-11.18593876473332
s(VCC
VNP-PN
tp545
F-7.0322776253548005
s(VNP-PN
VVP
tp546
F-12.284551053401431
s(VNN
VVV
tp547
F-12.284551053401431
s(VLCP
VCP
tp548
F-12.284551053401431
s(VCP
VQP-PN
tp549
F-12.284551053401431
s(VQP
VPRN
tp550
F-11.18593876473332
s(VNT
VNP
tp551
F-6.2207658447138225
s(VPP
VPU
tp552
F-12.284551053401431
s(VNP-PN
tp553
F-10.89825669228154
s(VPU
VCP
tp554
F-11.591403872841486
s(VPN
VNT
tp555
F-11.591403872841486
s(VDNP
VQP
tp556
F-9.4513377093452142
s(VIP
VPU
tp557
F-11.591403872841486
s(VCC
VCD
tp558
F-12.284551053401431
s(VNP
VADJP
tp559
F-10.492791584173375
s(VDNP
tp560
F-9.1064972230534842
s(VNP
VADVP
tp561
F-11.18593876473332
s(VNN
VCC
tp562
F-11.18593876473332
s(VDNP
VNP-PN
tp563
F-6.5288088398145181
s(VNT
tp564
F-3.6534936058361462
s(VNN
VADJP
tp565
F-11.18593876473332
s(VNP
VNR
tp566
F-12.284551053401431
s(VNT
VDNP
tp567
F-12.284551053401431
s(VNT
VLC
tp568
F-11.18593876473332
s(VNN
VNN
tp569
F-2.2517472293952459
s(VADJP
VNP-PN
tp570
F-8.036055811352071
s(VDP
VNP-PN
tp571
F-8.2241080428550113
s(VNN
VNT
tp572
F-9.5765008522992208
s(VPU
VNP
tp573
F-3.4862473349164511
s(VLCP
VNP-PN
tp574
F-11.591403872841486
s(VCD
VCLP
tp575
F-10.67511314096733
s(VVP
tp576
F-12.284551053401431
s(VQP
VIP
tp577
F-11.591403872841486
s(VDNP
VNN
tp578
F-9.7996444036134296
s(VQP
VNP-PN
tp579
F-7.7736915468845806
s(VDT
VNN
tp580
F-11.18593876473332
s(VPN
VNN
tp581
F-8.9172552234149567
s(VPU
VADJP
tp582
F-12.284551053401431
ssVFRAG
p583
(dp584
(VNR
VNR
tp585
F-5.0227050181835864
s(VETC
VVV
tp586
F-8.3549095283587906
s(VNP
VPRN
tp587
F-9.048056708918736
s(VFRAG
VPU
tp588
F-2.0014094310699795
s(VX
VFRAG
tp589
F-7.2562972396906806
s(VQP
VNP
tp590
F-8.3549095283587906
s(VNN
VNN
tp591
F-5.1768556980108444
s(VFRAG
VNP
tp592
F-5.7158521987435318
s(VPU
VPU
tp593
F-9.048056708918736
s(VVV
VVV
tp594
F-8.3549095283587906
s(VMSP
VFRAG
tp595
F-9.048056708918736
s(VNN
VP
tp596
F-9.048056708918736
s(VPU
VIP
tp597
F-9.048056708918736
s(VOD
VM
tp598
F-9.048056708918736
s(VQP
VQP
tp599
F-7.6617623477988452
s(VVC
VFRAG
tp600
F-9.048056708918736
s(VVV
VPU
tp601
F-9.048056708918736
s(VNN
tp602
F-7.4386187964846346
s(VPU
VFRAG
tp603
F-1.8498731318167922
s(VCD
VM
tp604
F-9.048056708918736
s(VNR
VFRAG
tp605
F-1.9107782716583497
s(VCD
VFRAG
tp606
F-6.2754679866789544
s(VNP-PN
VNP
tp607
F-9.048056708918736
s(VAD
VFRAG
tp608
F-7.4386187964846346
s(VJJ
VNN
tp609
F-6.9686151672388998
s(VAD
VVV
tp610
F-9.048056708918736
s(VNP
tp611
F-7.949444420250626
s(VFRAG
VNT
tp612
F-7.4386187964846346
s(VFRAG
VQP
tp613
F-5.5515491474522554
s(VPU
VNP-PN
tp614
F-8.3549095283587906
s(VNN
VVA
tp615
F-9.048056708918736
s(VQP
VPU
tp616
F-9.048056708918736
s(VPU
VNT
tp617
F-8.3549095283587906
s(VFRAG
VAD
tp618
F-9.048056708918736
s(VVC
VNN
tp619
F-9.048056708918736
s(VNT
VFRAG
tp620
F-2.4042669757710633
s(VNR
VNN
tp621
F-5.5515491474522554
s(VVV
VFRAG
tp622
F-6.6501614361203654
s(VDEG
VNN
tp623
F-9.048056708918736
s(VPU
VNR
tp624
F-4.6660300742448539
s(VP
VFRAG
tp625
F-6.6501614361203654
s(VCD
VPU
tp626
F-9.048056708918736
s(VNR
VPU
tp627
F-5.4104705491923495
s(VPU
VCD
tp628
F-4.9876136983723161
s(VLST
VNP
tp629
F-9.048056708918736
s(VFRAG
VNN
tp630
F-7.6617623477988452
s(VNP
VNP
tp631
F-9.048056708918736
s(VP
VNR
tp632
F-8.3549095283587906
s(VNN
VNR
tp633
F-2.9635572958435641
s(VNP-PN
VVP
tp634
F-7.949444420250626
s(VVV
tp635
F-2.4998376061563632
s(VDEC
VFRAG
tp636
F-9.048056708918736
s(VNP
VPU
tp637
F-5.4645377704626252
s(VNT
VNT
tp638
F-7.1021465598634226
s(VLST
VPU
tp639
F-6.4089993793034772
s(VNP
VQP
tp640
F-4.6660300742448539
s(VPU
VVV
tp641
F-9.048056708918736
s(VNR
tp642
F-6.7454716159246901
s(VFRAG
VFRAG
tp643
F-2.6989177175389378
s(VFRAG
VPRN
tp644
F-4.3940963587612121
s(VNN
VPU
tp645
F-7.949444420250626
s(VM
VFRAG
tp646
F-8.3549095283587906
s(VPU
VNN
tp647
F-8.3549095283587906
s(VDEC
VNN
tp648
F-9.048056708918736
s(VFRAG
VVP
tp649
F-4.7713905899026798
s(VVV
VNN
tp650
F-7.6617623477988452
s(VFRAG
VIP
tp651
F-4.730568595382425
s(VDEG
VFRAG
tp652
F-7.949444420250626
s(VNT
VNN
tp653
F-2.5991673147718779
s(VFRAG
VNR
tp654
F-7.6617623477988452
s(VFRAG
VVV
tp655
F-8.3549095283587906
s(VDT
VFRAG
tp656
F-6.4089993793034772
s(VCC
VFRAG
tp657
F-8.3549095283587906
s(VNP-PN
VNP-PN
tp658
F-7.949444420250626
s(VLC
VFRAG
tp659
F-9.048056708918736
s(VNN
VVV
tp660
F-7.4386187964846346
s(VAD
VVA
tp661
F-9.048056708918736
s(VM
VNT
tp662
F-7.6617623477988452
s(VNN
VCD
tp663
F-4.0176187875262999
s(VJJ
VFRAG
tp664
F-7.2562972396906806
s(VFRAG
VCLP
tp665
F-9.048056708918736
s(VNP-PN
tp666
F-7.6617623477988452
s(VFRAG
VCD
tp667
F-9.048056708918736
s(VNN
VFRAG
tp668
F-2.9388091261543701
s(VNR
VVV
tp669
F-5.6468593272565801
s(VVV
VNT
tp670
F-9.048056708918736
s(VVV
VNR
tp671
F-9.048056708918736
s(VPU
VNP
tp672
F-7.1021465598634226
s(VNP-PN
VPRN
tp673
F-5.5216961843025745
s(VFRAG
VNP-PN
tp674
F-5.9125624929895855
ssVVCD
p675
(dp676
(VVCD
VPU
tp677
F-4.7324319655990186
s(VVA
VVV
tp678
F-4.1934354648663312
s(VVV
VVV
tp679
F-0.4518054453668664
s(VCC
VVA
tp680
F-5.9851949340943866
s(VCD
VVV
tp681
F-5.2920477535344412
s(VVA
VVCD
tp682
F-5.2920477535344412
s(VVA
VVA
tp683
F-1.214510309628722
s(VPU
VVCD
tp684
F-4.7324319655990186
s(VVV
VVCD
tp685
F-4.4811175373181129
s(VVV
VVSB
tp686
F-6.678342114654332
s(VVV
VVA
tp687
F-4.8865826454262766
s(VPU
VVV
tp688
F-6.678342114654332
ssVPRN-PN
p689
(dp690
(VPRN-PN
VPU
tp691
F-1.0986122886681098
s(VPU
VPRN-PN
tp692
F-1.0986122886681098
s(VNR
VNN
tp693
F-1.0986122886681098
ssg416
(dp694
(VCD
VCP
tp695
F-9.2644970629281378
s(VCC
VNP
tp696
F-9.2644970629281378
s(VCD
VNP
tp697
F-9.2644970629281378
s(VPU
VCD
tp698
F-5.5631950888156441
s(VDT
VQP
tp699
F-9.9576442434880832
s(VPP
VQP
tp700
F-9.9576442434880832
s(VQP
VETC
tp701
F-9.2644970629281378
s(VCD
VOD
tp702
F-9.2644970629281378
s(VNP
VNP
tp703
F-8.8590319548199741
s(VNT
VQP
tp704
F-9.9576442434880832
s(VNN
tp705
F-9.9576442434880832
s(VM
tp706
F-9.2644970629281378
s(VPU
VOD
tp707
F-7.392694886026546
s(VQP
VPRN
tp708
F-7.124430899431867
s(VADJP
VNP
tp709
F-9.9576442434880832
s(VADJP
VQP
tp710
F-4.9337637226418067
s(VCD
VM
tp711
F-8.8590319548199741
s(VDT
tp712
F-9.9576442434880832
s(VCP
VQP
tp713
F-5.3132533443467107
s(VIP
VQP
tp714
F-8.3482063310539818
s(VLCP
VQP
tp715
F-6.4919083406883562
s(VNT
tp716
F-9.9576442434880832
s(VOD
VCLP
tp717
F-2.8535001505005559
s(VPU
VFW
tp718
F-9.9576442434880832
s(VOD
VQP
tp719
F-7.0132052643216429
s(VQP
VADJP
tp720
F-9.9576442434880832
s(VNP
VQP
tp721
F-3.843962063655852
s(VQP
VADVP
tp722
F-6.0658239453774563
s(VNP
tp723
F-9.9576442434880832
s(VCD
VCD
tp724
F-7.3185869138728243
s(VNP
VQP-PN
tp725
F-9.9576442434880832
s(VQP
VDEG
tp726
F-9.9576442434880832
s(VNP-PN
VQP
tp727
F-4.659326876940046
s(VCD
tp728
F-1.3960514647751612
s(VQP
VNP
tp729
F-7.7604196661518632
s(VCD
VPU
tp730
F-8.5713498823681924
s(VPN
tp731
F-9.9576442434880832
s(VCC
VQP
tp732
F-4.9878309439120825
s(VDNP
VQP
tp733
F-4.0968580200222169
s(VDT
VCLP
tp734
F-7.878202701808247
s(VDP
VQP
tp735
F-6.6254397333128789
s(VCD
VPRN
tp736
F-9.9576442434880832
s(VQP
VLCP
tp737
F-9.9576442434880832
s(VOD
VCP
tp738
F-9.9576442434880832
s(VQP
VCLP
tp739
F-6.7387684186198822
s(VNP
VDP
tp740
F-9.9576442434880832
s(VNN
VNN
tp741
F-9.2644970629281378
s(VFW
tp742
F-9.9576442434880832
s(VCP
VNP-PN
tp743
F-9.9576442434880832
s(VPU
VQP
tp744
F-4.6543393354290075
s(VDNP
VCD
tp745
F-9.9576442434880832
s(VFW
VCD
tp746
F-8.8590319548199741
s(VNR
VQP
tp747
F-9.9576442434880832
s(VADVP
VQP
tp748
F-3.3604985416014315
s(VCP
VNP
tp749
F-9.9576442434880832
s(VCC
VOD
tp750
F-8.5713498823681924
s(VCLP
tp751
F-4.6297680746985019
s(VPU
VNP
tp752
F-9.2644970629281378
s(VFW
VQP
tp753
F-8.8590319548199741
s(VADJP
VCLP
tp754
F-9.9576442434880832
s(VCD
VQP
tp755
F-4.3481724483031234
s(VCD
VCLP
p756
tp757
F-0.70933394026027152
s(VPRN
VQP
tp758
F-8.8590319548199741
s(VOD
tp759
F-3.7632388523834108
s(VCC
VCD
tp760
F-5.2214457950935875
s(VQP
VPU
tp761
F-6.4611366820216025
s(VFW
VCLP
tp762
F-9.2644970629281378
s(VUCP
VQP
tp763
F-9.9576442434880832
s(VPU
VIP
tp764
F-9.9576442434880832
s(VQP
VQP
tp765
F-3.8199171894018491
ssVIP
p766
(dp767
(VVP
VIP
tp768
F-5.7415273021930302
s(VADVP
p769
VIP
tp770
F-3.7198138126482383
s(VLST
VIP
tp771
F-6.8021461944219253
s(VIP
VAS
tp772
F-11.826026715268201
s(VNP
VPRN
tp773
F-11.826026715268201
s(VVP
VSP
tp774
F-6.9897448083167228
s(VQP-PN
VVP
tp775
F-11.826026715268201
s(VNP-PN
VPU
tp776
F-11.826026715268201
s(VADVP
VVP
tp777
F-5.8624473716497549
s(VCC
VVP
tp778
F-10.727414426600092
s(VCP
VNP-PN
tp779
F-11.826026715268201
s(VQP
VNP
tp780
F-11.132879534708255
s(VNP-PN
VNP
tp781
F-11.826026715268201
s(VPU
VPU
tp782
F-5.3583279891638478
s(VVA
VIP
tp783
F-11.826026715268201
s(VUCP
VPRN
tp784
F-11.826026715268201
s(VVRD
VNP
tp785
F-11.826026715268201
s(VNN
VVP
tp786
F-11.132879534708255
s(VPRN
VPU
tp787
F-10.216588802834101
s(VVP
VPRN
tp788
F-7.4693178885786091
s(VVA
tp789
F-10.727414426600092
s(VCP
VNP
tp790
F-11.132879534708255
s(VSP
VIP
tp791
F-10.43973235414831
s(VPU
VVP
tp792
F-3.6839634321640551
s(VNP
VVRD
tp793
F-11.132879534708255
s(VNP
VVV
tp794
F-11.132879534708255
s(VQP
VQP
tp795
F-11.826026715268201
s(VNP
VIP
tp796
F-3.095174811748969
s(VAD
VIP
tp797
F-10.727414426600092
s(VVP
VVP
tp798
F-10.034267246040146
s(VDNP
VVP
tp799
F-11.826026715268201
s(g354
VVP
tp800
F-8.9928133712119855
s(VPU
VETC
tp801
F-11.132879534708255
s(VIP
VNP
tp802
F-11.132879534708255
s(VCS
VIP
tp803
F-11.826026715268201
s(VPN
VVP
tp804
F-11.826026715268201
s(VCP
VVP
tp805
F-10.034267246040146
s(VNP
tp806
F-10.216588802834101
s(VPU
VIP
tp807
F-1.7418856630388155
s(VNP-PN
VQP
tp808
F-11.826026715268201
s(VPU
VNP-PN
tp809
F-11.132879534708255
s(VSP
VPRN
tp810
F-11.826026715268201
s(VDVP
VIP
tp811
F-8.4248293336060449
s(g387
VVP
p812
tp813
F-1.5684024373463459
s(VFRAG
VIP
tp814
F-11.132879534708255
s(VVV
VNP-PN
tp815
F-11.826026715268201
s(VVP
VETC
tp816
F-10.43973235414831
s(VDP
VIP
tp817
F-6.9508293920670496
s(VINTJ
VIP
tp818
F-9.6288021379319826
s(g172
VIP
tp819
F-3.7353179991842036
s(VVV
VIP
tp820
F-11.826026715268201
s(VNP
VNP
tp821
F-10.216588802834101
s(VLCP
VNP
tp822
F-11.826026715268201
s(VPP
VVP
tp823
F-8.0418370813499394
s(VLCP
VIP
tp824
F-4.5640996225654504
s(VCLP
VIP
tp825
F-11.132879534708255
s(VVV
VVP
tp826
F-11.826026715268201
s(VVCD
tp827
F-10.43973235414831
s(VAS
VIP
tp828
F-11.826026715268201
s(VNP
VQP
tp829
F-11.132879534708255
s(VVP
VPU
tp830
F-4.9172719359529804
s(VQP
VVP
tp831
F-5.9767019353213415
s(VIP
VVP
tp832
F-5.162894019277398
s(VIP
VSP
tp833
F-11.826026715268201
s(VPU
VPRN
tp834
F-8.7349842619098848
s(VCP
VIP
tp835
F-5.6926286722715531
s(VPU
VPP
tp836
F-7.7151528510948895
s(VPRN
VVP
tp837
F-11.826026715268201
s(VDNP
VIP
tp838
F-8.3920395107830554
s(VIP
VIP
tp839
F-2.1216610582043738
s(VIP
VPRN
tp840
F-9.4281314424698301
s(VUCP
VVP
tp841
F-9.3411200654802009
s(VIP
VETC
tp842
F-7.5219616220640315
s(VNP-PN
VIP
tp843
F-5.7438078048917554
s(VPU
VINTJ
tp844
F-11.826026715268201
s(VCC
VIP
tp845
F-6.1984056015775639
s(VNP-PN
VVP
tp846
F-3.1623118711891967
s(VDP
VVP
tp847
F-7.7316821530461004
s(VLCP
VVP
tp848
F-6.0608356124833564
s(VIP
VPU
tp849
F-2.2706083851989494
s(VSP
VPU
tp850
F-10.43973235414831
s(VIP
VFRAG
tp851
F-11.826026715268201
s(VPU
VCP
tp852
F-7.3373903455360612
s(VPRN
VIP
tp853
F-7.9548257043603101
s(VADJP
VIP
tp854
F-11.826026715268201
s(VNR
VIP
tp855
F-11.826026715268201
s(VVP
VDEC
tp856
F-8.8302944417142104
s(VFW
VIP
tp857
F-11.826026715268201
s(VVP
VAS
tp858
F-10.034267246040146
s(VUCP
VIP
tp859
F-8.7815042775447782
s(VJJ
tp860
F-11.826026715268201
s(VIJ
VIP
tp861
F-11.826026715268201
s(g689
VVP
tp862
F-11.826026715268201
s(VPU
VNP
tp863
F-9.8801165662128874
s(VVP
tp864
F-1.7427625081230762
s(VQP
VIP
tp865
F-6.600280041555
ssg540
(dp866
(VIJ
tp867
F-0.69314718055994529
s(VVP
tp868
F-2.4849066497880004
s(VSP
tp869
F-1.0986122886681098
s(VPU
VIJ
tp870
F-2.4849066497880004
ssVVCP
p871
(dp872
(VVV
VVC
tp873
F-0.13554549199622393
s(VVCP
VIP
tp874
F-4.2626798770413155
s(VVV
VVA
tp875
F-4.2626798770413155
s(VVA
VVA
tp876
F-3.5695326964813701
s(VVV
VVV
tp877
F-2.653241964607215
ssS'S'
(dp878
(V
tp879
F0
ssg431
(dp880
(VCLP
VDEG
tp881
F-8.3379867775224277
s(VDNP
VDNP
tp882
F-8.3379867775224277
s(VQP
tp883
F-8.0503047050706478
s(VPP
tp884
F-9.4365990661905386
s(VNN
VDEG
tp885
F-9.4365990661905386
s(VDP
VDEG
tp886
F-4.7452511839613942
s(VIP
VDEG
tp887
F-7.038703793392167
s(VCP
VDEG
tp888
F-9.4365990661905386
s(VQP
VDNP
tp889
F-9.4365990661905386
s(VIP
VDEC
tp890
F-9.4365990661905386
s(VNP
VDNP
tp891
F-8.0503047050706478
s(VNP-PN
VDEG
tp892
F-1.9988039445186059
s(VNP
tp893
F-8.3379867775224277
s(VNP
VDEG
tp894
F-0.48321759402329534
s(VQP
VDEG
tp895
F-3.0497197468278929
s(VNP-PN
VDEC
tp896
F-9.4365990661905386
s(VPP
VNP
tp897
F-9.4365990661905386
s(VPRN
VDEG
tp898
F-9.4365990661905386
s(VNP
VDEC
tp899
F-7.1340139731964918
s(VLCP
VDEG
tp900
F-2.8490490513657418
s(VADVP
VDNP
tp901
F-9.4365990661905386
s(VPU
VDNP
tp902
F-7.4906889171352242
s(VADJP
VDEG
tp903
F-2.9908792468049592
s(VLCP
VDEC
tp904
F-9.4365990661905386
s(VVP
VDEV
tp905
F-9.4365990661905386
s(VDNP
VPU
tp906
F-8.0503047050706478
s(VPP
VDEC
tp907
F-8.7434518856305932
s(VDNP
VNP
tp908
F-9.4365990661905386
s(VPN
VDEG
tp909
F-9.4365990661905386
s(VADJP
VDEC
tp910
F-8.0503047050706478
s(VDEC
tp911
F-9.4365990661905386
s(VPP
VDEG
tp912
F-2.6089698316876855
s(VADVP
VDEG
tp913
F-9.4365990661905386
s(VDEG
tp914
F-9.4365990661905386
s(VP
VDNP
tp915
F-9.4365990661905386
s(VDNP
VDEG
tp916
F-9.4365990661905386
s(g231
VDEG
tp917
F-5.5447787680799117
s(VDEG
VDEG
tp918
F-8.7434518856305932
ssg439
(dp919
(VNP
VIP
tp920
F-9.6094520061121713
s(VNP-PN
VCP
tp921
F-8.5108397174440622
s(VVP
VIP
tp922
F-9.6094520061121713
s(VADVP
VIP
tp923
F-3.6381901663217091
s(VNP
VCP
tp924
F-7.8176925368841168
s(VM
tp925
F-8.2231576449922805
s(VCP
VPU
tp926
F-5.2150028514397331
s(VIP
VDEG
tp927
F-6.5184095527538561
s(VIP
VAS
tp928
F-8.5108397174440622
s(VIP
VNP
tp929
F-8.9163048255522259
s(VPP
VCP
tp930
F-9.6094520061121713
s(VADVP
VCP
tp931
F-6.776238662055956
s(VCS
VIP
tp932
F-8.5108397174440622
s(VSP
VPU
tp933
F-8.9163048255522259
s(VVP
VSP
tp934
F-8.9163048255522259
s(VIP
VDEC
tp935
F-0.17333156150064954
s(VCP
tp936
F-9.6094520061121713
s(VCP
VDEC
tp937
F-5.9985340934679474
s(VDEC
VNP
tp938
F-9.6094520061121713
s(VPU
VCP
tp939
F-5.305386912908002
s(VAS
VCP
tp940
F-9.6094520061121713
s(VVP
VDEC
tp941
F-8.9163048255522259
s(VCP
VPRN
tp942
F-9.6094520061121713
s(VIP
VPU
tp943
F-8.2231576449922805
s(VPU
VIP
tp944
F-8.0000140936780717
s(VQP
VCP
tp945
F-9.6094520061121713
s(VNP
VVP
tp946
F-8.2231576449922805
s(VPU
VPU
tp947
F-6.8368632838723906
s(VIP
tp948
F-2.4447316273403144
s(VDEC
VPU
tp949
F-8.5108397174440622
s(VIP
VSP
tp950
F-3.8924243047059499
s(VSP
VCP
tp951
F-7.1245453563241714
s(VPU
VPRN
tp952
F-8.9163048255522259
s(VADVP
VVP
tp953
F-9.6094520061121713
s(VDEC
VDEC
tp954
F-8.5108397174440622
s(VIP
VCP
tp955
F-6.1129444446456915
s(VCP
VCP
tp956
F-6.5649295683887487
s(VCP
VNP
tp957
F-8.5108397174440622
s(VPU
VDEC
tp958
F-8.2231576449922805
s(VPU
VNP
tp959
F-9.6094520061121713
s(VIP
VETC
tp960
F-9.6094520061121713
s(VIP
VDNP
tp961
F-9.6094520061121713
s(VCC
VCP
tp962
F-8.5108397174440622
ssg756
(dp963
(VM
VCLP
tp964
F-8.8710842639783536
s(VM
VM
tp965
F-8.4656191558701899
s(VCP
tp966
F-9.564231444538299
s(VCC
VM
tp967
F-9.564231444538299
s(VPU
VM
tp968
F-9.564231444538299
s(VCLP
VCLP
tp969
F-8.8710842639783536
s(VNP
VLC
tp970
F-7.2616463515442531
s(VM
VNN
tp971
F-9.564231444538299
s(VADJP
VCLP
tp972
F-5.1215801880479823
s(VQP
VLC
tp973
F-9.564231444538299
s(VNN
tp974
F-7.4847899028584628
s(VM
VPRN
tp975
F-8.8710842639783536
s(VM
tp976
F-0.009238103850709431
s(VPU
VCLP
tp977
F-8.8710842639783536
s(VJJ
VCLP
tp978
F-9.564231444538299
s(VCLP
VPU
tp979
F-9.564231444538299
s(VNP
tp980
F-9.564231444538299
s(VNP
VCLP
tp981
F-9.564231444538299
s(VNP-PN
VCLP
tp982
F-7.4847899028584628
ssg769
(dp983
(VVV
tp984
F-8.3292558958366474
s(VVA
tp985
F-10.526480473172866
s(VPP
tp986
F-10.526480473172866
s(VNN
tp987
F-10.526480473172866
s(VCC
VAD
tp988
F-8.4470389314930312
s(VMSP
tp989
F-10.526480473172866
s(VAD
VAD
tp990
F-8.1285852003744967
s(VCS
VAD
tp991
F-10.526480473172866
s(VVV
VVP
tp992
F-10.526480473172866
s(VPU
VAD
tp993
F-8.2238953801788206
s(VCC
VADVP
tp994
F-10.526480473172866
s(VP
tp995
F-10.526480473172866
s(VNP
tp996
F-10.526480473172866
s(VIJ
tp997
F-9.833333292612922
s(VAD
VADVP
tp998
F-7.481958035449443
s(VNP
VADVP
tp999
F-10.526480473172866
s(VJJ
tp1000
F-8.7347210039448111
s(VLCP
VADVP
tp1001
F-10.526480473172866
s(VPN
tp1002
F-10.526480473172866
s(VCS
tp1003
F-3.7341360457020571
s(VPP
VADVP
tp1004
F-8.5805703241175539
s(VADVP
VPU
tp1005
F-9.4278681845047565
s(VADVP
VADVP
tp1006
F-8.2238953801788206
s(VAD
VVP
tp1007
F-10.526480473172866
s(VNP-PN
VADVP
tp1008
F-9.4278681845047565
s(VAD
tp1009
F-0.027320761460629211
s(VPU
VADVP
tp1010
F-8.1285852003744967
ssg812
(dp1011
(VAS
VNP-PN
tp1012
F-12.053003047789701
s(g160
VNP
tp1013
F-7.3990426976321793
s(VAS
VVV
tp1014
F-10.666708686669812
s(VQP
tp1015
F-5.3885940274392947
s(VVC
VQP
tp1016
F-6.2094586307583421
s(VVP
VIP
tp1017
F-3.5023750802872273
s(VPP
tp1018
F-6.500043462868085
s(VADVP
VVPT
tp1019
F-10.954390759121592
s(VVSB
VLCP
tp1020
F-12.053003047789701
s(VNP
VPP
tp1021
F-11.359855867229758
s(VVC
VLCP
tp1022
F-9.6551077749913325
s(VVSB
VAS
tp1023
F-12.053003047789701
s(VVSB
tp1024
F-6.4289855416023638
s(VNP
VPRN
tp1025
F-12.053003047789701
s(VVRD
VPU
tp1026
F-11.359855867229758
s(g107
VVP
tp1027
F-5.5382903569171722
s(VVCD
VNP-PN
tp1028
F-12.053003047789701
s(VVP
VSP
tp1029
F-12.053003047789701
s(VVE
VDER
tp1030
F-12.053003047789701
s(VVV
VCP
tp1031
F-9.2197897037334862
s(VADVP
tp1032
F-10.954390759121592
s(VVP
VPP
tp1033
F-7.5312144707406619
s(VVCP
VIP
tp1034
F-9.6551077749913325
s(VQP
VPU
tp1035
F-12.053003047789701
s(VVPT
VIP
tp1036
F-8.6857072178032286
s(VVPT
VPU
tp1037
F-12.053003047789701
s(VCC
VVP
tp1038
F-4.7945908971943956
s(VVP
VUCP
tp1039
F-9.5680963980017015
s(VVV
VDP
tp1040
F-8.6190158433045561
s(VVC
VNP
tp1041
F-3.908614182242081
s(VVRD
VDP
tp1042
F-12.053003047789701
s(VVV
g101
tp1043
F-12.053003047789701
s(VVE
VNP-PN
tp1044
F-10.10709289873439
s(VNN
VNN
tp1045
F-12.053003047789701
s(VVSB
VNP
tp1046
F-7.4378825309484426
s(VPU
VPU
tp1047
F-10.443565135355602
s(VIP
tp1048
F-9.1626312898935378
s(VVRD
VIP
tp1049
F-7.9258686627446107
s(VVPT
VAS
tp1050
F-10.261243578561647
s(VP
VNP
tp1051
F-11.359855867229758
s(VVA
VIP
tp1052
F-7.8483104283987366
s(VVV
VADVP
tp1053
F-7.7222697075033713
s(VVC
VPU
tp1054
F-6.7851448887263741
s(VUCP
tp1055
F-12.053003047789701
s(VVA
VNP-PN
tp1056
F-12.053003047789701
s(VVRD
VNP
tp1057
F-5.6610859343971001
s(VNN
VVP
tp1058
F-12.053003047789701
s(VVA
VPU
tp1059
F-10.443565135355602
s(VVP
VPRN
tp1060
F-8.7949065097682197
s(VVP
VNP
tp1061
F-3.8679315702574195
s(VADVP
VADVP
tp1062
F-11.359855867229758
s(VVA
tp1063
F-3.2642571658515673
s(VVV
VVV
tp1064
F-9.1626312898935378
s(VVRD
VSP
tp1065
F-12.053003047789701
s(VNN
VQP
tp1066
F-12.053003047789701
s(VVE
VNP
tp1067
F-4.4934435517820024
s(VVA
VAS
tp1068
F-7.622186248946389
s(VVNV
VNP
tp1069
F-8.7949065097682197
s(VNP
VNP
tp1070
F-9.973561506109867
s(VPU
VVP
tp1071
F-2.747807144800841
s(VNP
VVV
tp1072
F-11.359855867229758
s(VQP
VQP
tp1073
F-12.053003047789701
s(VAS
VQP
tp1074
F-12.053003047789701
s(VNP
VIP
tp1075
F-8.8341272229215022
s(VVE
VIP
tp1076
F-5.4751416900686554
s(VVP
VVP
tp1077
F-2.6159255889891795
s(VQP
VVV
tp1078
F-12.053003047789701
s(VDNP
VVP
tp1079
F-12.053003047789701
s(VPU
VVPT
tp1080
F-12.053003047789701
s(VVC
VNP-PN
tp1081
F-7.9925600372432832
s(VVP
VDP
tp1082
F-10.954390759121592
s(VVE
VPU
tp1083
F-10.443565135355602
s(VLST
VVP
tp1084
F-9.0084806100662789
s(VVC
VADJP
tp1085
F-9.4880536903281651
s(VVV
VPU
tp1086
F-4.1786442230598206
s(VAD
VNP
tp1087
F-12.053003047789701
s(VPU
VETC
tp1088
F-10.443565135355602
s(VCC
VNN
tp1089
F-12.053003047789701
s(VVNV
tp1090
F-9.057270774235711
s(VVCD
VQP
tp1091
F-10.10709289873439
s(VVCD
VLCP
tp1092
F-12.053003047789701
s(VMSP
tp1093
F-12.053003047789701
s(VVNV
VPP
tp1094
F-12.053003047789701
s(VVRD
tp1095
F-5.934905849748354
s(VVRD
VADVP
tp1096
F-12.053003047789701
s(VVE
tp1097
F-7.804507805740343
s(VCP
VVP
tp1098
F-8.5266425231735408
s(VVA
VCLP
tp1099
F-11.359855867229758
s(VBA
VCP
tp1100
F-12.053003047789701
s(VADVP
VPP
tp1101
F-10.443565135355602
s(VNP
tp1102
F-6.50782560331014
s(VMSP
VVP
tp1103
F-4.8630808770438945
s(VVV
VDNP
tp1104
F-11.359855867229758
s(VPU
VIP
tp1105
F-8.2918029320961395
s(VVV
VVC
tp1106
F-12.053003047789701
s(VNP
VVP
tp1107
F-4.1482991339159554
s(VVRD
VVV
tp1108
F-12.053003047789701
s(VVPT
tp1109
F-7.1330221219615773
s(VVV
VNN
tp1110
F-12.053003047789701
s(VSB
VVP
tp1111
F-5.9415357082870237
s(VBA
VIP
tp1112
F-5.4262852985406775
s(VVNV
VDNP
tp1113
F-12.053003047789701
s(VSB
VIP
tp1114
F-10.666708686669812
s(VVSB
VIP
tp1115
F-9.7504179547956564
s(VVV
VNP-PN
tp1116
F-4.5365697448740701
s(VVRD
VAS
tp1117
F-9.3449528466874927
s(VVP
VLCP
tp1118
F-8.6857072178032286
s(VVE
VDP
tp1119
F-12.053003047789701
s(VPU
VVC
tp1120
F-10.954390759121592
s(VVC
VPP
tp1121
F-7.5986557515361941
s(VVA
VVV
tp1122
F-10.954390759121592
s(VVP
VDER
tp1123
F-10.666708686669812
s(VCS
VVP
tp1124
F-12.053003047789701
s(VVC
tp1125
F-9.2804143255499216
s(VLB
VCP
tp1126
F-7.1113606251803976
s(VADVP
VVA
tp1127
F-10.261243578561647
s(VPU
VBA
tp1128
F-11.359855867229758
s(VVV
VCC
tp1129
F-12.053003047789701
s(VVC
VADVP
tp1130
F-12.053003047789701
s(VVCD
VPP
tp1131
F-11.359855867229758
s(VVV
VDER
tp1132
F-6.8882170738661879
s(VPU
VVRD
tp1133
F-12.053003047789701
s(VLB
VIP
tp1134
F-7.3801742133277957
s(VVCD
VAS
tp1135
F-11.359855867229758
s(VVC
VDP
tp1136
F-10.954390759121592
s(VDP
tp1137
F-12.053003047789701
s(VVV
VIP
tp1138
F-3.740131653447087
s(VVCP
VVP
tp1139
F-11.359855867229758
s(VADVP
VNP
tp1140
F-10.954390759121592
s(VDVP
VVRD
tp1141
F-12.053003047789701
s(VADVP
VVSB
tp1142
F-12.053003047789701
s(VADVP
VVCD
tp1143
F-10.954390759121592
s(VADVP
g98
tp1144
F-12.053003047789701
s(VVRD
VUCP
tp1145
F-10.666708686669812
s(VMSP
VVRD
tp1146
F-12.053003047789701
s(VPP
VVP
tp1147
F-2.7022922229662436
s(VVCD
VPU
tp1148
F-10.954390759121592
s(VVCD
VIP
tp1149
F-10.443565135355602
s(VVV
VNP
tp1150
F-1.9539898309760368
s(VNP
VPU
tp1151
F-11.359855867229758
s(VVP
VVV
tp1152
F-12.053003047789701
s(VNP
VETC
tp1153
F-12.053003047789701
s(VVA
VDEC
tp1154
F-12.053003047789701
s(VVE
VAS
tp1155
F-7.2738795546781727
s(VVP
VETC
tp1156
F-7.9258686627446107
s(VVRD
VPP
tp1157
F-12.053003047789701
s(VVCD
tp1158
F-5.6009540933524766
s(VVA
VLCP
tp1159
F-10.954390759121592
s(VAS
VLCP
tp1160
F-11.359855867229758
s(VVA
VDER
tp1161
F-8.8749492174417561
s(VVV
VLCP
tp1162
F-6.3261553002025055
s(VVC
VVP
tp1163
F-5.6281340238843143
s(VPU
VVV
tp1164
F-6.4182134446204522
s(VVA
VPRN
tp1165
F-10.954390759121592
s(VVC
VCP
tp1166
F-10.954390759121592
s(VVP
VPU
tp1167
F-5.5033523055558922
s(VVA
VPP
tp1168
F-9.4139457181744444
s(VNP-PN
VVV
tp1169
F-12.053003047789701
s(VVSB
VPP
tp1170
F-12.053003047789701
s(VQP
VVP
tp1171
F-5.8424029707650496
s(VMSP
VIP
tp1172
F-12.053003047789701
s(g871
VQP
tp1173
F-11.359855867229758
s(VADVP
VQP
tp1174
F-9.8557784704534832
s(VIP
VVP
tp1175
F-5.2167437705126352
s(VVC
VIP
tp1176
F-5.782014615931403
s(VVRD
VNP-PN
tp1177
F-8.9175088318605518
s(VVCD
VNP
tp1178
F-7.9586584855676019
s(VPU
VPRN
tp1179
F-10.261243578561647
s(VVPT
VNP-PN
tp1180
F-11.359855867229758
s(VADVP
VVP
tp1181
F-1.7127132318363698
s(VPRN
VVP
tp1182
F-10.261243578561647
s(VVCP
VLCP
tp1183
F-12.053003047789701
s(VNP
VQP
tp1184
F-7.9098683213981698
s(VAS
VNP
tp1185
F-8.2463405580193818
s(VVV
VAS
tp1186
F-3.7932860867681799
s(VVP
VNP-PN
tp1187
F-7.6103517912993857
s(VNP
VVCD
tp1188
F-12.053003047789701
s(VVSB
VPU
tp1189
F-12.053003047789701
s(VAD
tp1190
F-12.053003047789701
s(VPP
VVV
tp1191
F-10.261243578561647
s(VUCP
VVP
tp1192
F-10.954390759121592
s(VPU
VVE
tp1193
F-9.8557784704534832
s(VPP
VPP
tp1194
F-12.053003047789701
s(VNP-PN
VIP
tp1195
F-9.2804143255499216
s(VVV
VUCP
tp1196
F-8.1017593292082744
s(g339
VVP
tp1197
F-7.7625436066413114
s(VNN
tp1198
F-9.7504179547956564
s(VADVP
VLCP
tp1199
F-12.053003047789701
s(VMSP
VVV
tp1200
F-12.053003047789701
s(VVV
VPP
tp1201
F-5.3746609331353703
s(VVV
tp1202
F-2.2745119854282594
s(VNR
tp1203
F-12.053003047789701
s(VVNV
VAS
tp1204
F-12.053003047789701
s(VVPT
VVP
tp1205
F-9.8557784704534832
s(VVE
VUCP
tp1206
F-12.053003047789701
s(VQP
VNP
tp1207
F-11.359855867229758
s(VVC
VDNP
tp1208
F-9.1085640686232612
s(VADJP
VVP
tp1209
F-12.053003047789701
s(VNP-PN
VVP
tp1210
F-7.3168045993952067
s(VVPT
VLCP
tp1211
F-12.053003047789701
s(VDP
VVP
tp1212
F-6.3261553002025055
s(g367
VQP
tp1213
F-7.3256152290773615
s(VVA
VADVP
tp1214
F-8.4976549863002884
s(VVV
VQP
tp1215
F-4.3961929563093243
s(VQP
VPRN
tp1216
F-11.359855867229758
s(VLCP
p1217
VVP
tp1218
F-5.1623939276425359
s(VIP
VPU
tp1219
F-12.053003047789701
s(VADJP
tp1220
F-9.2804143255499216
s(VVSB
VNP-PN
tp1221
F-10.261243578561647
s(VNP-PN
tp1222
F-8.3153334295063335
s(VVRD
VVP
tp1223
F-7.9258686627446107
s(VNP
VVSB
tp1224
F-12.053003047789701
s(VPU
VVA
tp1225
F-7.776336928773647
s(VPU
VCP
tp1226
F-12.053003047789701
s(VVA
VVP
tp1227
F-6.7955076757619208
s(VCLP
VVP
tp1228
F-10.954390759121592
s(VVP
VADVP
tp1229
F-8.9175088318605518
s(VVC
VPRN
tp1230
F-11.359855867229758
s(VPU
VAS
tp1231
F-10.443565135355602
s(VVA
VQP
tp1232
F-8.4976549863002884
s(VADVP
VVV
tp1233
F-9.7504179547956564
s(VAS
VVP
tp1234
F-12.053003047789701
s(VVP
VDEC
tp1235
F-12.053003047789701
s(VSB
VCP
tp1236
F-11.359855867229758
s(VDVP
VPP
tp1237
F-12.053003047789701
s(VVA
VVA
tp1238
F-9.057270774235711
s(VADVP
VVC
tp1239
F-12.053003047789701
s(VVV
VPRN
tp1240
F-11.359855867229758
s(VVC
VUCP
tp1241
F-9.2804143255499216
s(VVCP
VNP
tp1242
F-8.3394309810853944
s(VVP
VAS
tp1243
F-8.8749492174417561
s(VNN
VNP
tp1244
F-12.053003047789701
s(VNP
VADVP
tp1245
F-10.954390759121592
s(VVNV
VIP
tp1246
F-11.359855867229758
s(VIP
p1247
VPP
p1248
tp1249
F-12.053003047789701
s(VVE
VCP
tp1250
F-12.053003047789701
s(VPRN
VVC
tp1251
F-12.053003047789701
s(g675
VVP
tp1252
F-8.8341272229215022
s(VPU
VVCD
tp1253
F-11.359855867229758
s(VVV
VVCD
tp1254
F-12.053003047789701
s(VVV
VADJP
tp1255
F-11.359855867229758
s(VVCP
VNP-PN
tp1256
F-10.443565135355602
s(VVE
VADVP
tp1257
F-12.053003047789701
s(VVV
VVP
tp1258
F-3.355824359377058
s(VVE
VVP
tp1259
F-10.954390759121592
s(VVP
VQP
tp1260
F-5.5993780488970106
s(VVA
VNP
tp1261
F-9.5680963980017015
s(VVA
VSP
tp1262
F-12.053003047789701
s(VVSB
VVP
tp1263
F-8.4976549863002884
s(VVE
VLCP
tp1264
F-10.666708686669812
s(VCC
VVV
tp1265
F-7.7091976259360182
s(VVP
VCC
tp1266
F-11.359855867229758
s(VPU
VNP
tp1267
F-10.443565135355602
s(VAD
VVP
tp1268
F-10.10709289873439
s(VCC
VVA
tp1269
F-7.8633483057632763
s(VVP
VCP
tp1270
F-8.9175088318605518
s(VVCP
tp1271
F-9.973561506109867
s(VVSB
p1272
VQP
tp1273
F-9.5680963980017015
s(VPP
VVSB
tp1274
F-12.053003047789701
s(VVV
VSP
tp1275
F-10.954390759121592
s(VVE
VQP
tp1276
F-7.1854685973341201
s(VVRD
VLCP
tp1277
F-9.3449528466874927
s(VVNV
VQP
tp1278
F-12.053003047789701
s(VLCP
tp1279
F-9.2804143255499216
ssg1217
(dp1280
(VADVP
VLCP
tp1281
F-6.7940887588375931
s(VVP
VLC
tp1282
F-8.2981661556138668
s(VUCP
VLC
tp1283
F-7.1995538669457577
s(VCP
VLCP
tp1284
F-8.2981661556138668
s(VDP
VLC
tp1285
F-5.6591088259986089
s(VCC
VLCP
tp1286
F-6.5934180633754425
s(VP
VLCP
tp1287
F-8.9913133361738122
s(VIP
VNP
tp1288
F-8.9913133361738122
s(VADVP
VLC
tp1289
F-5.9467908984503897
s(VNN
VLC
tp1290
F-8.2981661556138668
s(VLCP
VPU
tp1291
F-7.1995538669457577
s(VPU
VLCP
tp1292
F-6.1009415782776477
s(VQP
VLC
tp1293
F-2.1967267552973135
s(VDNP
VLCP
tp1294
F-5.9467908984503897
s(VNP
tp1295
F-7.3818754237397126
s(VCLP
VLC
tp1296
F-8.9913133361738122
s(VPP
VLCP
tp1297
F-8.9913133361738122
s(VLCP
VLCP
tp1298
F-5.7332167981523305
s(VLCP
VPRN
tp1299
F-7.8927010475057031
s(VNP
VLCP
tp1300
F-5.1201123252659215
s(VIP
tp1301
F-7.6050189750539214
s(VNP-PN
VLCP
tp1302
F-7.8927010475057031
s(VLC
tp1303
F-6.7940887588375931
s(VCP
VLC
tp1304
F-8.9913133361738122
s(VIP
VLC
tp1305
F-1.6242362762928004
s(VPP
VLC
tp1306
F-5.9002708828154971
s(VLCP
VLC
tp1307
F-6.3522560065585543
s(VNT
VLC
tp1308
F-7.8927010475057031
s(VCP
VNP
tp1309
F-8.9913133361738122
s(VNP
VLC
tp1310
F-0.45883752122641819
s(VADJP
VCLP
tp1311
F-8.9913133361738122
s(VNP-PN
VLC
tp1312
F-3.6585945429084434
s(VLCP
VETC
tp1313
F-8.9913133361738122
s(VIP
VLCP
tp1314
F-8.2981661556138668
ssg1272
(dp1315
(VVV
VVC
tp1316
F-6.1268691841141854
s(VVP
VVP
tp1317
F-5.43372200355424
s(VVA
VVV
tp1318
F-4.7405748229942946
s(VVV
VNP
tp1319
F-6.1268691841141854
s(VVV
VVV
tp1320
F-0.079497005067906995
s(VVCD
VVE
tp1321
F-6.1268691841141854
s(VVRD
VVV
tp1322
F-6.1268691841141854
s(VVSB
VPP
tp1323
F-6.1268691841141854
s(VVV
VVE
tp1324
F-4.7405748229942946
s(VVV
VVCD
tp1325
F-5.0282568954460753
s(VVV
VVSB
tp1326
F-4.7405748229942946
s(VVV
VPU
tp1327
F-6.1268691841141854
s(VPU
VVSB
tp1328
F-5.0282568954460753
s(VVV
VVA
tp1329
F-4.33510971488613
s(VPU
VVV
tp1330
F-5.43372200355424
s(VVCD
VVV
tp1331
F-6.1268691841141854
ss.